target datalayout = "e-m:e-p270:32:32-p271:32:32-p272:64:64-i64:64-i128:128-f80:128-n8:16:32:64-S128"
target triple = "x86_64-pc-linux-gnu"

%struct.gmlattr = type { i16, i16, ptr, %union.anon }
%union.anon = type { ptr }

; Function Attrs: nounwind uwtable
define internal void @free_attrs(ptr noundef %0) #0 {
  %2 = alloca ptr, align 8
  store ptr %0, ptr %2, align 8, !tbaa !4
  %3 = load ptr, ptr %2, align 8, !tbaa !4
  call void @attrs_free(ptr noundef %3)
  %4 = load ptr, ptr %2, align 8, !tbaa !4
  call void @free(ptr noundef %4) #15
  ret void
}

; Function Attrs: nounwind uwtable
define dso_local void @free_attr(ptr noundef %0) #0 {
  %2 = alloca ptr, align 8
  store ptr %0, ptr %2, align 8, !tbaa !4
  %3 = load ptr, ptr %2, align 8, !tbaa !4
  %4 = icmp ne ptr %3, null
  br i1 %4, label %6, label %5

5:                                                ; preds = %1
  br label %30

6:                                                ; preds = %1
  %7 = load ptr, ptr %2, align 8, !tbaa !4
  %8 = getelementptr inbounds nuw %struct.gmlattr, ptr %7, i32 0, i32 0
  %9 = load i16, ptr %8, align 8, !tbaa !45
  %10 = zext i16 %9 to i32
  %11 = icmp eq i32 %10, 289
  br i1 %11, label %12, label %21

12:                                               ; preds = %6
  %13 = load ptr, ptr %2, align 8, !tbaa !4
  %14 = getelementptr inbounds nuw %struct.gmlattr, ptr %13, i32 0, i32 3
  %15 = load ptr, ptr %14, align 8, !tbaa !25
  %16 = icmp ne ptr %15, null
  br i1 %16, label %17, label %21

17:                                               ; preds = %12
  %18 = load ptr, ptr %2, align 8, !tbaa !4
  %19 = getelementptr inbounds nuw %struct.gmlattr, ptr %18, i32 0, i32 3
  %20 = load ptr, ptr %19, align 8, !tbaa !25
  call void @free_attrs(ptr noundef %20)
  br label %25

21:                                               ; preds = %12, %6
  %22 = load ptr, ptr %2, align 8, !tbaa !4
  %23 = getelementptr inbounds nuw %struct.gmlattr, ptr %22, i32 0, i32 3
  %24 = load ptr, ptr %23, align 8, !tbaa !25
  call void @free(ptr noundef %24) #15
  br label %25

25:                                               ; preds = %21, %17
  %26 = load ptr, ptr %2, align 8, !tbaa !4
  %27 = getelementptr inbounds nuw %struct.gmlattr, ptr %26, i32 0, i32 2
  %28 = load ptr, ptr %27, align 8, !tbaa !46
  call void @free(ptr noundef %28) #15
  %29 = load ptr, ptr %2, align 8, !tbaa !4
  call void @free(ptr noundef %29) #15
  br label %30

30:                                               ; preds = %25, %5
  ret void
}