; Function Attrs: nounwind uwtable
define dso_local void @free_attr(ptr noundef captures(address_is_null) %0) local_unnamed_addr #0 {
  %.not = icmp eq ptr %0, null
  br i1 %.not, label %11, label %2

2:                                                ; preds = %1
  %3 = load i16, ptr %0, align 8, !tbaa !14
  %4 = icmp eq i16 %3, 289
  %5 = getelementptr inbounds nuw i8, ptr %0, i64 16
  %6 = load ptr, ptr %5, align 8, !tbaa !18
  br i1 %4, label %7, label %._crit_edge

7:                                                ; preds = %2
  %.not8 = icmp eq ptr %6, null
  br i1 %.not8, label %._crit_edge, label %8

8:                                                ; preds = %7
  tail call fastcc void @attrs_free(ptr noundef nonnull %6)
  br label %._crit_edge

._crit_edge:                                      ; preds = %7, %2, %8
  %.sink = phi ptr [ %6, %8 ], [ null, %7 ], [ %6, %2 ]
  tail call void @free(ptr noundef %.sink) #20
  %9 = getelementptr inbounds nuw i8, ptr %0, i64 8
  %10 = load ptr, ptr %9, align 8, !tbaa !19
  tail call void @free(ptr noundef %10) #20
  tail call void @free(ptr noundef nonnull %0) #20
  br label %11

11:                                               ; preds = %1, %._crit_edge
  ret void
}